target datalayout = "e-m:e-p270:32:32-p271:32:32-p272:64:64-i64:64-i128:128-f80:128-n8:16:32:64-S128"
target triple = "x86_64-pc-linux-gnu"

%struct.sat_solver2_t = type { i32, i32, i32, i32, i32, double, double, i32, i32, i32, i32, ptr, ptr, i32, i32, i32, i32, i32, i32, i32, i32, i32, i32, i32, %struct.Sat_Mem_t_, ptr, %struct.veci_t, %struct.veci_t, i32, i32, i32, ptr, ptr, ptr, ptr, ptr, ptr, ptr, ptr, %struct.veci_t, %struct.veci_t, %struct.veci_t, %struct.veci_t, %struct.veci_t, %struct.veci_t, %struct.veci_t, %struct.veci_t, %struct.veci_t, %struct.veci_t, ptr, %struct.veci_t, i32, i32, ptr, double, ptr, i32, %struct.stats_t, i64, i64, i64 }
%struct.Sat_Mem_t_ = type { [2 x i32], [2 x i32], [2 x i32], [2 x i32], i32, i32, i32, i32, ptr }
%struct.veci_t = type { i32, i32, ptr }
%struct.stats_t = type { i32, i32, i32, i64, i64, i64, i64, i64, i64, i64 }
%struct.clause_t = type { i32, [0 x i32] }

; Function Attrs: nounwind uwtable
define internal ptr @Sat_MemClause(ptr noundef %0, i32 noundef %1, i32 noundef %2) #0 {
  %4 = alloca ptr, align 8
  %5 = alloca i32, align 4
  %6 = alloca i32, align 4
  store ptr %0, ptr %4, align 8
  store i32 %1, ptr %5, align 4
  store i32 %2, ptr %6, align 4
  %7 = load ptr, ptr %4, align 8
  %8 = getelementptr inbounds %struct.Sat_Mem_t_, ptr %7, i32 0, i32 8
  %9 = load ptr, ptr %8, align 8
  %10 = load i32, ptr %5, align 4
  %11 = sext i32 %10 to i64
  %12 = getelementptr inbounds ptr, ptr %9, i64 %11
  %13 = load ptr, ptr %12, align 8
  %14 = load i32, ptr %6, align 4
  %15 = sext i32 %14 to i64
  %16 = getelementptr inbounds i32, ptr %13, i64 %15
  ret ptr %16
}

; Function Attrs: nounwind uwtable
define internal i32 @Sat_MemHandShift(ptr noundef %0, i32 noundef %1) #0 {
  %3 = alloca ptr, align 8
  %4 = alloca i32, align 4
  store ptr %0, ptr %3, align 8
  store i32 %1, ptr %4, align 4
  %5 = load i32, ptr %4, align 4
  %6 = load ptr, ptr %3, align 8
  %7 = getelementptr inbounds %struct.Sat_Mem_t_, ptr %6, i32 0, i32 5
  %8 = load i32, ptr %7, align 4
  %9 = and i32 %5, %8
  ret i32 %9
}

; Function Attrs: nounwind uwtable
define internal i32 @Sat_MemHandPage(ptr noundef %0, i32 noundef %1) #0 {
  %3 = alloca ptr, align 8
  %4 = alloca i32, align 4
  store ptr %0, ptr %3, align 8
  store i32 %1, ptr %4, align 4
  %5 = load i32, ptr %4, align 4
  %6 = load ptr, ptr %3, align 8
  %7 = getelementptr inbounds %struct.Sat_Mem_t_, ptr %6, i32 0, i32 4
  %8 = load i32, ptr %7, align 8
  %9 = ashr i32 %5, %8
  ret i32 %9
}

; Function Attrs: nounwind uwtable
define internal ptr @Sat_MemClauseHand(ptr noundef %0, i32 noundef %1) #0 {
  %3 = alloca ptr, align 8
  %4 = alloca i32, align 4
  store ptr %0, ptr %3, align 8
  store i32 %1, ptr %4, align 4
  %5 = load i32, ptr %4, align 4
  %6 = icmp ne i32 %5, 0
  br i1 %6, label %7, label %16

7:                                                ; preds = %2
  %8 = load ptr, ptr %3, align 8
  %9 = load ptr, ptr %3, align 8
  %10 = load i32, ptr %4, align 4
  %11 = call i32 @Sat_MemHandPage(ptr noundef %9, i32 noundef %10)
  %12 = load ptr, ptr %3, align 8
  %13 = load i32, ptr %4, align 4
  %14 = call i32 @Sat_MemHandShift(ptr noundef %12, i32 noundef %13)
  %15 = call ptr @Sat_MemClause(ptr noundef %8, i32 noundef %11, i32 noundef %14)
  br label %17

16:                                               ; preds = %2
  br label %17

17:                                               ; preds = %16, %7
  %18 = phi ptr [ %15, %7 ], [ null, %16 ]
  ret ptr %18
}

; Function Attrs: nounwind uwtable
define internal void @veci_resize(ptr noundef %0, i32 noundef %1) #0 {
  %3 = alloca ptr, align 8
  %4 = alloca i32, align 4
  store ptr %0, ptr %3, align 8
  store i32 %1, ptr %4, align 4
  %5 = load i32, ptr %4, align 4
  %6 = load ptr, ptr %3, align 8
  %7 = getelementptr inbounds %struct.veci_t, ptr %6, i32 0, i32 1
  store i32 %5, ptr %7, align 4
  ret void
}

; Function Attrs: nounwind uwtable
define internal i32 @lit_sign(i32 noundef %0) #0 {
  %2 = alloca i32, align 4
  store i32 %0, ptr %2, align 4
  %3 = load i32, ptr %2, align 4
  %4 = and i32 %3, 1
  ret i32 %4
}

; Function Attrs: nounwind uwtable
define internal i32 @var_value(ptr noundef %0, i32 noundef %1) #0 {
  %3 = alloca ptr, align 8
  %4 = alloca i32, align 4
  store ptr %0, ptr %3, align 8
  store i32 %1, ptr %4, align 4
  %5 = load ptr, ptr %3, align 8
  %6 = getelementptr inbounds %struct.sat_solver2_t, ptr %5, i32 0, i32 33
  %7 = load ptr, ptr %6, align 8
  %8 = load i32, ptr %4, align 4
  %9 = sext i32 %8 to i64
  %10 = getelementptr inbounds i8, ptr %7, i64 %9
  %11 = load i8, ptr %10, align 1
  %12 = sext i8 %11 to i32
  ret i32 %12
}

; Function Attrs: nounwind uwtable
define internal i32 @lit_var(i32 noundef %0) #0 {
  %2 = alloca i32, align 4
  store i32 %0, ptr %2, align 4
  %3 = load i32, ptr %2, align 4
  %4 = ashr i32 %3, 1
  ret i32 %4
}

; Function Attrs: nounwind uwtable
define internal ptr @clause2_read(ptr noundef %0, i32 noundef %1) #0 {
  %3 = alloca ptr, align 8
  %4 = alloca i32, align 4
  store ptr %0, ptr %3, align 8
  store i32 %1, ptr %4, align 4
  %5 = load ptr, ptr %3, align 8
  %6 = getelementptr inbounds %struct.sat_solver2_t, ptr %5, i32 0, i32 24
  %7 = load i32, ptr %4, align 4
  %8 = call ptr @Sat_MemClauseHand(ptr noundef %6, i32 noundef %7)
  ret ptr %8
}

; Function Attrs: nounwind uwtable
define internal i32 @veci_size(ptr noundef %0) #0 {
  %2 = alloca ptr, align 8
  store ptr %0, ptr %2, align 8
  %3 = load ptr, ptr %2, align 8
  %4 = getelementptr inbounds %struct.veci_t, ptr %3, i32 0, i32 1
  %5 = load i32, ptr %4, align 4
  ret i32 %5
}

; Function Attrs: nounwind uwtable
define internal ptr @veci_begin(ptr noundef %0) #0 {
  %2 = alloca ptr, align 8
  store ptr %0, ptr %2, align 8
  %3 = load ptr, ptr %2, align 8
  %4 = getelementptr inbounds %struct.veci_t, ptr %3, i32 0, i32 2
  %5 = load ptr, ptr %4, align 8
  ret ptr %5
}

; Function Attrs: nounwind uwtable
define i32 @sat_solver2_check_watched(ptr noundef %0) #0 {
  %2 = alloca ptr, align 8
  %3 = alloca ptr, align 8
  %4 = alloca i32, align 4
  %5 = alloca i32, align 4
  %6 = alloca i32, align 4
  %7 = alloca i32, align 4
  %8 = alloca [2 x i32], align 4
  %9 = alloca ptr, align 8
  store ptr %0, ptr %2, align 8
  call void @llvm.memset.p0.i64(ptr align 4 %8, i8 0, i64 8, i1 false)
  store i32 0, ptr %4, align 4
  br label %10

10:                                               ; preds = %112, %1
  %11 = load i32, ptr %4, align 4
  %12 = load ptr, ptr %2, align 8
  %13 = getelementptr inbounds %struct.sat_solver2_t, ptr %12, i32 0, i32 0
  %14 = load i32, ptr %13, align 8
  %15 = mul nsw i32 %14, 2
  %16 = icmp slt i32 %11, %15
  br i1 %16, label %17, label %115

17:                                               ; preds = %10
  %18 = load ptr, ptr %2, align 8
  %19 = getelementptr inbounds %struct.sat_solver2_t, ptr %18, i32 0, i32 25
  %20 = load ptr, ptr %19, align 8
  %21 = load i32, ptr %4, align 4
  %22 = sext i32 %21 to i64
  %23 = getelementptr inbounds %struct.veci_t, ptr %20, i64 %22
  %24 = call ptr @veci_begin(ptr noundef %23)
  store ptr %24, ptr %9, align 8
  store i32 0, ptr %5, align 4
  store i32 0, ptr %7, align 4
  br label %25

25:                                               ; preds = %97, %17
  %26 = load i32, ptr %5, align 4
  %27 = load ptr, ptr %2, align 8
  %28 = getelementptr inbounds %struct.sat_solver2_t, ptr %27, i32 0, i32 25
  %29 = load ptr, ptr %28, align 8
  %30 = load i32, ptr %4, align 4
  %31 = sext i32 %30 to i64
  %32 = getelementptr inbounds %struct.veci_t, ptr %29, i64 %31
  %33 = call i32 @veci_size(ptr noundef %32)
  %34 = icmp slt i32 %26, %33
  br i1 %34, label %35, label %100

35:                                               ; preds = %25
  %36 = load ptr, ptr %2, align 8
  %37 = load ptr, ptr %9, align 8
  %38 = load i32, ptr %5, align 4
  %39 = sext i32 %38 to i64
  %40 = getelementptr inbounds i32, ptr %37, i64 %39
  %41 = load i32, ptr %40, align 4
  %42 = call ptr @clause2_read(ptr noundef %36, i32 noundef %41)
  store ptr %42, ptr %3, align 8
  store i32 0, ptr %6, align 4
  br label %43

43:                                               ; preds = %69, %35
  %44 = load i32, ptr %6, align 4
  %45 = load ptr, ptr %3, align 8
  %46 = load i32, ptr %45, align 4
  %47 = lshr i32 %46, 11
  %48 = icmp slt i32 %44, %47
  br i1 %48, label %49, label %72

49:                                               ; preds = %43
  %50 = load ptr, ptr %2, align 8
  %51 = load ptr, ptr %3, align 8
  %52 = getelementptr inbounds %struct.clause_t, ptr %51, i32 0, i32 1
  %53 = load i32, ptr %6, align 4
  %54 = sext i32 %53 to i64
  %55 = getelementptr inbounds [0 x i32], ptr %52, i64 0, i64 %54
  %56 = load i32, ptr %55, align 4
  %57 = call i32 @lit_var(i32 noundef %56)
  %58 = call i32 @var_value(ptr noundef %50, i32 noundef %57)
  %59 = load ptr, ptr %3, align 8
  %60 = getelementptr inbounds %struct.clause_t, ptr %59, i32 0, i32 1
  %61 = load i32, ptr %6, align 4
  %62 = sext i32 %61 to i64
  %63 = getelementptr inbounds [0 x i32], ptr %60, i64 0, i64 %62
  %64 = load i32, ptr %63, align 4
  %65 = call i32 @lit_sign(i32 noundef %64)
  %66 = icmp eq i32 %58, %65
  br i1 %66, label %67, label %68

67:                                               ; preds = %49
  br label %72

68:                                               ; preds = %49
  br label %69

69:                                               ; preds = %68
  %70 = load i32, ptr %6, align 4
  %71 = add nsw i32 %70, 1
  store i32 %71, ptr %6, align 4
  br label %43, !llvm.loop !46

72:                                               ; preds = %67, %43
  %73 = load i32, ptr %6, align 4
  %74 = load ptr, ptr %3, align 8
  %75 = load i32, ptr %74, align 4
  %76 = lshr i32 %75, 11
  %77 = icmp eq i32 %73, %76
  br i1 %77, label %78, label %89

78:                                               ; preds = %72
  %79 = load ptr, ptr %9, align 8
  %80 = load i32, ptr %5, align 4
  %81 = sext i32 %80 to i64
  %82 = getelementptr inbounds i32, ptr %79, i64 %81
  %83 = load i32, ptr %82, align 4
  %84 = load ptr, ptr %9, align 8
  %85 = load i32, ptr %7, align 4
  %86 = add nsw i32 %85, 1
  store i32 %86, ptr %7, align 4
  %87 = sext i32 %85 to i64
  %88 = getelementptr inbounds i32, ptr %84, i64 %87
  store i32 %83, ptr %88, align 4
  br label %97

89:                                               ; preds = %72
  %90 = load ptr, ptr %3, align 8
  %91 = load i32, ptr %90, align 4
  %92 = and i32 %91, 1
  %93 = zext i32 %92 to i64
  %94 = getelementptr inbounds [2 x i32], ptr %8, i64 0, i64 %93
  %95 = load i32, ptr %94, align 4
  %96 = add nsw i32 %95, 1
  store i32 %96, ptr %94, align 4
  br label %97

97:                                               ; preds = %89, %78
  %98 = load i32, ptr %5, align 4
  %99 = add nsw i32 %98, 1
  store i32 %99, ptr %5, align 4
  br label %25, !llvm.loop !47

100:                                              ; preds = %25
  %101 = load ptr, ptr %2, align 8
  %102 = getelementptr inbounds %struct.sat_solver2_t, ptr %101, i32 0, i32 25
  %103 = load ptr, ptr %102, align 8
  %104 = load i32, ptr %4, align 4
  %105 = sext i32 %104 to i64
  %106 = getelementptr inbounds %struct.veci_t, ptr %103, i64 %105
  %107 = load i32, ptr %7, align 4
  call void @veci_resize(ptr noundef %106, i32 noundef %107)
  %108 = load i32, ptr %7, align 4
  %109 = icmp eq i32 %108, 0
  br i1 %109, label %110, label %111

110:                                              ; preds = %100
  br label %111

111:                                              ; preds = %110, %100
  br label %112

112:                                              ; preds = %111
  %113 = load i32, ptr %4, align 4
  %114 = add nsw i32 %113, 1
  store i32 %114, ptr %4, align 4
  br label %10, !llvm.loop !48

115:                                              ; preds = %10
  ret i32 0
}