; Function Attrs: nofree norecurse nosync nounwind memory(readwrite, inaccessiblemem: write) uwtable
define noundef i32 @sat_solver2_check_watched(ptr noundef readonly captures(none) %0) local_unnamed_addr #15 {
  %2 = alloca [2 x i32], align 8
  store i64 0, ptr %2, align 8
  %3 = load i32, ptr %0, align 8
  %4 = icmp sgt i32 %3, 0
  br i1 %4, label %.lr.ph54, label %._crit_edge55

.lr.ph54:                                         ; preds = %1
  %5 = getelementptr inbounds nuw i8, ptr %0, i64 176
  %6 = getelementptr i8, ptr %0, i64 152
  %7 = getelementptr i8, ptr %0, i64 156
  %8 = getelementptr i8, ptr %0, i64 168
  %9 = getelementptr i8, ptr %0, i64 248
  br label %10

10:                                               ; preds = %.lr.ph54, %._crit_edge49
  %indvars.iv60 = phi i64 [ 0, %.lr.ph54 ], [ %indvars.iv.next61, %._crit_edge49 ]
  %11 = load ptr, ptr %5, align 8
  %12 = getelementptr %struct.veci_t, ptr %11, i64 %indvars.iv60, i32 2
  %.val = load ptr, ptr %12, align 8
  %13 = getelementptr %struct.veci_t, ptr %11, i64 %indvars.iv60, i32 1
  %.val3344 = load i32, ptr %13, align 4
  %14 = icmp sgt i32 %.val3344, 0
  br i1 %14, label %.lr.ph48, label %._crit_edge49

.lr.ph48:                                         ; preds = %10, %50
  %15 = phi ptr [ %51, %50 ], [ %11, %10 ]
  %indvars.iv57 = phi i64 [ %indvars.iv.next58, %50 ], [ 0, %10 ]
  %.03046 = phi i32 [ %.1, %50 ], [ 0, %10 ]
  %16 = getelementptr inbounds nuw i32, ptr %.val, i64 %indvars.iv57
  %17 = load i32, ptr %16, align 4
  %.not.i.i = icmp ne i32 %17, 0
  tail call void @llvm.assume(i1 %.not.i.i)
  %.val.i.i = load i32, ptr %6, align 8
  %18 = ashr i32 %17, %.val.i.i
  %.val5.i.i = load i32, ptr %7, align 4
  %19 = and i32 %.val5.i.i, %17
  %.val6.i.i = load ptr, ptr %8, align 8
  %20 = sext i32 %18 to i64
  %21 = getelementptr inbounds ptr, ptr %.val6.i.i, i64 %20
  %22 = load ptr, ptr %21, align 8
  %23 = sext i32 %19 to i64
  %24 = getelementptr inbounds i32, ptr %22, i64 %23
  %25 = getelementptr inbounds nuw i8, ptr %24, i64 4
  %26 = load i32, ptr %24, align 4
  %27 = lshr i32 %26, 11
  %.not = icmp ult i32 %26, 2048
  br i1 %.not, label %._crit_edge, label %.lr.ph

.lr.ph:                                           ; preds = %.lr.ph48
  %.val34 = load ptr, ptr %9, align 8
  %wide.trip.count = zext nneg i32 %27 to i64
  br label %28

28:                                               ; preds = %.lr.ph, %38
  %indvars.iv = phi i64 [ 0, %.lr.ph ], [ %indvars.iv.next, %38 ]
  %29 = getelementptr inbounds nuw [0 x i32], ptr %25, i64 0, i64 %indvars.iv
  %30 = load i32, ptr %29, align 4
  %31 = ashr i32 %30, 1
  %32 = sext i32 %31 to i64
  %33 = getelementptr inbounds i8, ptr %.val34, i64 %32
  %34 = load i8, ptr %33, align 1
  %35 = sext i8 %34 to i32
  %36 = and i32 %30, 1
  %37 = icmp eq i32 %36, %35
  br i1 %37, label %._crit_edge.loopexit, label %38

38:                                               ; preds = %28
  %indvars.iv.next = add nuw nsw i64 %indvars.iv, 1
  %exitcond.not = icmp eq i64 %indvars.iv.next, %wide.trip.count
  br i1 %exitcond.not, label %._crit_edge.thread, label %28, !llvm.loop !54

._crit_edge.loopexit:                             ; preds = %28
  %39 = trunc nuw nsw i64 %indvars.iv to i32
  br label %._crit_edge

._crit_edge:                                      ; preds = %._crit_edge.loopexit, %.lr.ph48
  %.031.lcssa = phi i32 [ 0, %.lr.ph48 ], [ %39, %._crit_edge.loopexit ]
  %40 = icmp eq i32 %.031.lcssa, %27
  br i1 %40, label %._crit_edge.thread, label %44

._crit_edge.thread:                               ; preds = %38, %._crit_edge
  %41 = add nsw i32 %.03046, 1
  %42 = sext i32 %.03046 to i64
  %43 = getelementptr inbounds i32, ptr %.val, i64 %42
  store i32 %17, ptr %43, align 4
  %.pre = load ptr, ptr %5, align 8
  br label %50

44:                                               ; preds = %._crit_edge
  %45 = and i32 %26, 1
  %46 = zext nneg i32 %45 to i64
  %47 = getelementptr inbounds nuw [2 x i32], ptr %2, i64 0, i64 %46
  %48 = load i32, ptr %47, align 4
  %49 = add nsw i32 %48, 1
  store i32 %49, ptr %47, align 4
  br label %50

50:                                               ; preds = %44, %._crit_edge.thread
  %51 = phi ptr [ %.pre, %._crit_edge.thread ], [ %15, %44 ]
  %.1 = phi i32 [ %41, %._crit_edge.thread ], [ %.03046, %44 ]
  %indvars.iv.next58 = add nuw nsw i64 %indvars.iv57, 1
  %52 = getelementptr %struct.veci_t, ptr %51, i64 %indvars.iv60, i32 1
  %.val33 = load i32, ptr %52, align 4
  %53 = sext i32 %.val33 to i64
  %54 = icmp slt i64 %indvars.iv.next58, %53
  br i1 %54, label %.lr.ph48, label %._crit_edge49, !llvm.loop !55

._crit_edge49:                                    ; preds = %50, %10
  %.030.lcssa = phi i32 [ 0, %10 ], [ %.1, %50 ]
  %.lcssa36 = phi ptr [ %13, %10 ], [ %52, %50 ]
  store i32 %.030.lcssa, ptr %.lcssa36, align 4
  %indvars.iv.next61 = add nuw nsw i64 %indvars.iv60, 1
  %55 = load i32, ptr %0, align 8
  %56 = shl nsw i32 %55, 1
  %57 = sext i32 %56 to i64
  %58 = icmp slt i64 %indvars.iv.next61, %57
  br i1 %58, label %10, label %._crit_edge55, !llvm.loop !56

._crit_edge55:                                    ; preds = %._crit_edge49, %1
  ret i32 0
}